(lp0
Vability
p1
aVable
p2
aVabortion
p3
aVabsolutely
p4
aVabuse
p5
aVaccept
p6
aVacceptable
p7
aVaccess
p8
aVaccident
p9
aVaccomplished
p10
aVaccomplishment
p11
aVaccording
p12
aVaccount
p13
aVaccused
p14
aVact
p15
aVaction
p16
aVactivity
p17
aVactual
p18
aVadd
p19
aVaddition
p20
aVaddress
p21
aVadministration
p22
aVadmit
p23
aVadmits
p24
aVadmitted
p25
aVadult
p26
aVadvantage
p27
aVadviser
p28
aVafraid
p29
aVage
p30
aVagency
p31
aVagenda
p32
aVago
p33
aVagree
p34
aVagreed
p35
aVagreement
p36
aVahead
p37
aVaid
p38
aVaide
p39
aVaimed
p40
aVain
p41
aVair
p42
aVakron
p43
aValbright
p44
aValien
p45
aVallegation
p46
aVallow
p47
aVallowed
p48
aVallowing
p49
aVally
p50
aValmost
p51
aValone
p52
aValong
p53
aValready
p54
aValso
p55
aValways
p56
aVamazing
p57
aVambassador
p58
aVamendment
p59
aVamerica
p60
aVamerican
p61
aVamnesty
p62
aVamong
p63
aVamount
p64
aVanalogy
p65
aVanalysis
p66
aVangry
p67
aVanother
p68
aVanswer
p69
aVanti
p70
aVanybody
p71
aVanymore
p72
aVanyone
p73
aVanything
p74
aVanywhere
p75
aVapparently
p76
aVappear
p77
aVappears
p78
aVapply
p79
aVappropriate
p80
aVapproval
p81
aVarchive
p82
aVaren
p83
aVargues
p84
aVargument
p85
aVarkansas
p86
aVarm
p87
aVaround
p88
aVarrested
p89
aVarrogant
p90
aVarticle
p91
aVask
p92
aVasked
p93
aVasking
p94
aVassassination
p95
aVassertion
p96
aVasset
p97
aVassume
p98
aVattack
p99
aVattacked
p100
aVattacking
p101
aVattempt
p102
aVattention
p103
aVattorney
p104
aVaudience
p105
aVauthor
p106
aVauthority
p107
aVauthorized
p108
aVaverage
p109
aVavoid
p110
aVaware
p111
aVaway
p112
aVbaby
p113
aVback
p114
aVbackside
p115
aVbad
p116
aVbag
p117
aVbaggage
p118
aVbaited
p119
aVbaked
p120
aVbald
p121
aVballot
p122
aVbanker
p123
aVbankruptcy
p124
aVbar
p125
aVbarack
p126
aVbarry
p127
aVbase
p128
aVbased
p129
aVbasically
p130
aVbasis
p131
aVbattle
p132
aVbeat
p133
aVbeating
p134
aVbecame
p135
aVbecome
p136
aVbecomes
p137
aVbegin
p138
aVbeginning
p139
aVbehavior
p140
aVbehind
p141
aVbelief
p142
aVbelieve
p143
aVbelieved
p144
aVbelongs
p145
aVbenefit
p146
aVbenefitted
p147
aVbenghazi
p148
aVberger
p149
aVbernie
p150
aVbest
p151
aVbet
p152
aVbetter
p153
aVbeyond
p154
aVbiased
p155
aVbiden
p156
aVbiennial
p157
aVbig
p158
aVbiggest
p159
aVbill
p160
aVbillion
p161
aVbiological
p162
aVbirth
p163
aVbit
p164
aVblack
p165
aVblah
p166
aVblame
p167
aVbleeping
p168
aVblind
p169
aVblm
p170
aVblog
p171
aVblood
p172
aVblue
p173
aVbluster
p174
aVbob
p175
aVbody
p176
aVbook
p177
aVborder
p178
aVborn
p179
aVbos
p180
aVbottom
p181
aVbow
p182
aVbox
p183
aVboy
p184
aVbrady
p185
aVbrain
p186
aVbrand
p187
aVbreach
p188
aVbreak
p189
aVbreaking
p190
aVbreath
p191
aVbring
p192
aVbringing
p193
aVbroadcast
p194
aVbroke
p195
aVbroken
p196
aVbrother
p197
aVbrought
p198
aVbrown
p199
aVbtw
p200
aVbuck
p201
aVbuddy
p202
aVbudget
p203
aVbuild
p204
aVbuilding
p205
aVbuilt
p206
aVbully
p207
aVbunch
p208
aVburn
p209
aVbushthe
p210
aVbusiness
p211
aVbusy
p212
aVbuy
p213
aVcall
p214
aVcalled
p215
aVcalling
p216
aVcame
p217
aVcampaign
p218
aVcandidate
p219
aVcannot
p220
aVcant
p221
aVcapability
p222
aVcapacity
p223
aVcapone
p224
aVcard
p225
aVcare
p226
aVcared
p227
aVcareer
p228
aVcarefully
p229
aVcarl
p230
aVcarly
p231
aVcarry
p232
aVcarson
p233
aVcarter
p234
aVcase
p235
aVcash
p236
aVcatch
p237
aVcaught
p238
aVcause
p239
aVcave
p240
aVcell
p241
aVcenter
p242
aVcertain
p243
aVcertainly
p244
aVcertificate
p245
aVchamber
p246
aVchance
p247
aVchange
p248
aVchanged
p249
aVcharacter
p250
aVcharge
p251
aVcharged
p252
aVcheck
p253
aVcheer
p254
aVchemical
p255
aVcheney
p256
aVchief
p257
aVchild
p258
aVchina
p259
aVchinese
p260
aVchoice
p261
aVchoose
p262
aVchosen
p263
aVchris
p264
aVchristie
p265
aVchuck
p266
aVchurch
p267
aVcia
p268
aVcitizen
p269
aVcitizenship
p270
aVcity
p271
aVclaim
p272
aVclaimed
p273
aVclass
p274
aVclassification
p275
aVclassified
p276
aVclean
p277
aVclear
p278
aVclearance
p279
aVclearly
p280
aVclick
p281
aVclose
p282
aVcloset
p283
aVclown
p284
aVclue
p285
aVcnn
p286
aVcoin
p287
aVcolin
p288
aVcollege
p289
aVcolorado
p290
aVcolumn
p291
aVcom
p292
aVcome
p293
aVcomfort
p294
aVcoming
p295
aVcomment
p296
aVcommie
p297
aVcommitted
p298
aVcommittee
p299
aVcommon
p300
aVcommunication
p301
aVcommunity
p302
aVcompany
p303
aVcompetent
p304
aVcomplete
p305
aVcompletely
p306
aVcompliant
p307
aVcomprehend
p308
aVcomprehensive
p309
aVcomputer
p310
aVcon
p311
aVconcern
p312
aVconclusion
p313
aVconduct
p314
aVconducted
p315
aVconducting
p316
aVconfident
p317
aVconfidential
p318
aVconfiscated
p319
aVcongress
p320
aVcongressional
p321
aVconscience
p322
aVconservative
p323
aVconsider
p324
aVconsidered
p325
aVconsidering
p326
aVconsistent
p327
aVconsistently
p328
aVconspiracy
p329
aVconstituent
p330
aVconstitution
p331
aVcontain
p332
aVcontained
p333
aVcontaining
p334
aVcontent
p335
aVcontinue
p336
aVcontinues
p337
aVcontractor
p338
aVcontrol
p339
aVcontroversy
p340
aVconvincing
p341
aVcopy
p342
aVcore
p343
aVcorporate
p344
aVcorporation
p345
aVcorporatist
p346
aVcorrect
p347
aVcorrectness
p348
aVcorrespondence
p349
aVcorrupt
p350
aVcorruption
p351
aVcost
p352
aVcould
p353
aVcouldn
p354
aVcount
p355
aVcountry
p356
aVcounty
p357
aVcouple
p358
aVcourse
p359
aVcourt
p360
aVcover
p361
aVcoverage
p362
aVcovering
p363
aVcoward
p364
aVcrank
p365
aVcrap
p366
aVcrash
p367
aVcrazy
p368
aVcreate
p369
aVcreated
p370
aVcreation
p371
aVcredibility
p372
aVcredit
p373
aVcrime
p374
aVcriminal
p375
aVcritic
p376
aVcrook
p377
aVcrooked
p378
aVcry
p379
aVcuban
p380
aVcurrently
p381
aVcut
p382
aVcycle
p383
aVdaily
p384
aVdamn
p385
aVdanger
p386
aVdangerous
p387
aVdarling
p388
aVdata
p389
aVdate
p390
aVdavid
p391
aVday
p392
aVdead
p393
aVdeadly
p394
aVdeal
p395
aVdealing
p396
aVdeath
p397
aVdebate
p398
aVdebt
p399
aVdec
p400
aVdecade
p401
aVdeceit
p402
aVdecency
p403
aVdecent
p404
aVdeception
p405
aVdecided
p406
aVdeclared
p407
aVdeemed
p408
aVdefending
p409
aVdefense
p410
aVdeficit
p411
aVdefinitely
p412
aVdefunding
p413
aVdegree
p414
aVdeleted
p415
aVdeleting
p416
aVdeliberately
p417
aVdelivering
p418
aVdelivery
p419
aVdem
p420
aVdemand
p421
aVdemanded
p422
aVdemocrat
p423
aVdemocratic
p424
aVdems
p425
aVdeny
p426
aVdepartment
p427
aVdept
p428
aVdeserve
p429
aVdesperate
p430
aVdespite
p431
aVdestroy
p432
aVdestroyed
p433
aVdestruction
p434
aVdetail
p435
aVdetermined
p436
aVdeutch
p437
aVdevelop
p438
aVdeveloping
p439
aVdevelopment
p440
aVdeviant
p441
aVdevice
p442
aVdidn
p443
aVdifference
p444
aVdifferent
p445
aVdifficult
p446
aVdirector
p447
aVdirty
p448
aVdisagree
p449
aVdisappointed
p450
aVdisarm
p451
aVdisaster
p452
aVdiscovered
p453
aVdiscredit
p454
aVdisguised
p455
aVdish
p456
aVdishonest
p457
aVdishonesty
p458
aVdisrupting
p459
aVdistinction
p460
aVdistraction
p461
aVdistrict
p462
aVdocument
p463
aVdoe
p464
aVdoesn
p465
aVdog
p466
aVdoj
p467
aVdollar
p468
aVdonation
p469
aVdone
p470
aVdonna
p471
aVdonnell
p472
aVdonor
p473
aVdont
p474
aVdoor
p475
aVdouble
p476
aVdoubt
p477
aVdozen
p478
aVdrag
p479
aVdrip
p480
aVdrive
p481
aVdrop
p482
aVdrug
p483
aVdue
p484
aVdumb
p485
aVearly
p486
aVearn
p487
aVearned
p488
aVeasily
p489
aVeast
p490
aVeasy
p491
aVeconomic
p492
aVeconomy
p493
aVeducation
p494
aVedward
p495
aVeffect
p496
aVeffective
p497
aVeffectively
p498
aVeffort
p499
aVeight
p500
aVeither
p501
aVeleanor
p502
aVelect
p503
aVelectable
p504
aVelected
p505
aVelection
p506
aVelectorate
p507
aVelectronic
p508
aVelite
p509
aVelse
p510
aVemail
p511
aVemployee
p512
aVempty
p513
aVend
p514
aVended
p515
aVendless
p516
aVenemy
p517
aVengaged
p518
aVenough
p519
aVentertaining
p520
aVentertainment
p521
aVentire
p522
aVentirely
p523
aVentitled
p524
aVentry
p525
aVequivalent
p526
aVera
p527
aVerased
p528
aVerickson
p529
aVespecially
p530
aVespionage
p531
aVestablishment
p532
aVestimated
p533
aVetc
p534
aVevangelical
p535
aVeven
p536
aVevent
p537
aVeventually
p538
aVever
p539
aVevery
p540
aVeverybody
p541
aVeveryone
p542
aVeverything
p543
aVevidence
p544
aVevil
p545
aVexample
p546
aVexcept
p547
aVexcuse
p548
aVexecutive
p549
aVexpanding
p550
aVexpansion
p551
aVexpect
p552
aVexpecting
p553
aVexperience
p554
aVexperienced
p555
aVexplain
p556
aVexposed
p557
aVeye
p558
aVface
p559
aVfacility
p560
aVfact
p561
aVfail
p562
aVfailed
p563
aVfails
p564
aVfailure
p565
aVfair
p566
aVfake
p567
aVfall
p568
aVfalse
p569
aVfamiliar
p570
aVfamily
p571
aVfan
p572
aVfar
p573
aVfast
p574
aVfat
p575
aVfault
p576
aVfaux
p577
aVfavor
p578
aVfbi
p579
aVfear
p580
aVfeb
p581
aVfed
p582
aVfederal
p583
aVfeel
p584
aVfellow
p585
aVfelon
p586
aVfemale
p587
aVfetus
p588
aVfewer
p589
aVfiction
p590
aVfield
p591
aVfight
p592
aVfighter
p593
aVfighting
p594
aVfigure
p595
aVfile
p596
aVfiled
p597
aVfill
p598
aVfinally
p599
aVfinancial
p600
aVfind
p601
aVfinding
p602
aVfine
p603
aVfinish
p604
aVfiorina
p605
aVfire
p606
aVfirearm
p607
aVfired
p608
aVfirst
p609
aVfiscal
p610
aVfit
p611
aVfitzgerald
p612
aVfive
p613
aVfix
p614
aVflame
p615
aVflat
p616
aVflip
p617
aVflop
p618
aVflorida
p619
aVfly
p620
aVfocus
p621
aVfolk
p622
aVfollow
p623
aVfollowed
p624
aVfollowing
p625
aVfool
p626
aVfoot
p627
aVforce
p628
aVforeign
p629
aVforever
p630
aVforget
p631
aVform
p632
aVformer
p633
aVforum
p634
aVforward
p635
aVfound
p636
aVfoundation
p637
aVfour
p638
aVfox
p639
aVfraud
p640
aVfree
p641
aVfreedom
p642
aVfriend
p643
aVfront
p644
aVfull
p645
aVfully
p646
aVfun
p647
aVfunded
p648
aVfunny
p649
aVfuture
p650
aVgame
p651
aVgang
p652
aVgap
p653
aVgave
p654
aVgeez
p655
aVgeneral
p656
aVgeneration
p657
aVget
p658
aVgetting
p659
aVgimme
p660
aVgive
p661
aVgiven
p662
aVgiving
p663
aVglad
p664
aVglobal
p665
aVgoal
p666
aVgod
p667
aVgoing
p668
aVgoldwater
p669
aVgolf
p670
aVgone
p671
aVgonna
p672
aVgood
p673
aVgop
p674
aVgore
p675
aVgot
p676
aVgov
p677
aVgovernment
p678
aVgovernor
p679
aVgovt
p680
aVgowdy
p681
aVgpa
p682
aVgraham
p683
aVgrand
p684
aVgrassroots
p685
aVgrave
p686
aVgreat
p687
aVgreedy
p688
aVgreen
p689
aVgrew
p690
aVground
p691
aVgroup
p692
aVgrowing
p693
aVgruber
p694
aVguaranteed
p695
aVguess
p696
aVguilty
p697
aVgullible
p698
aVgun
p699
aVgutter
p700
aVguy
p701
aVhack
p702
aVhacked
p703
aVhag
p704
aVhair
p705
aVhalf
p706
aVhammer
p707
aVhand
p708
aVhandle
p709
aVhandled
p710
aVhandling
p711
aVhappen
p712
aVhappened
p713
aVhappens
p714
aVhard
p715
aVharm
p716
aVharry
p717
aVhasn
p718
aVhate
p719
aVhater
p720
aVhatred
p721
aVhaven
p722
aVhead
p723
aVheadline
p724
aVhealth
p725
aVhear
p726
aVheard
p727
aVhearing
p728
aVheld
p729
aVhell
p730
aVhelp
p731
aVhelping
p732
aVhenry
p733
aVhero
p734
aVhey
p735
aVhide
p736
aVhiding
p737
aVhigh
p738
aVhigher
p739
aVhighest
p740
aVhighly
p741
aVhilarious
p742
aVhill
p743
aVhillarythe
p744
aVhilliary
p745
aVhired
p746
aVhispanic
p747
aVhistory
p748
aVhit
p749
aVhold
p750
aVholdgate
p751
aVholding
p752
aVhollen
p753
aVhome
p754
aVhonest
p755
aVhonestly
p756
aVhonesty
p757
aVhope
p758
aVhoping
p759
aVhorse
p760
aVhot
p761
aVhour
p762
aVhouse
p763
aVhoused
p764
aVhowever
p765
aVhrc
p766
aVhttp
p767
aVhuge
p768
aVhuma
p769
aVhuman
p770
aVhundred
p771
aVhunt
p772
aVhurt
p773
aVhusband
p774
aVhussein
p775
aVhypocrisy
p776
aVhypocrite
p777
aVidea
p778
aVideal
p779
aVideology
p780
aVidiot
p781
aVignorance
p782
aVignorant
p783
aVignored
p784
aVill
p785
aVillegal
p786
aVillegally
p787
aVillegals
p788
aVillinois
p789
aVimage
p790
aVimagine
p791
aVimmediately
p792
aVimmigrant
p793
aVimmigration
p794
aVimportance
p795
aVimportant
p796
aVimportantly
p797
aVimpossible
p798
aVimpression
p799
aVimprove
p800
aVinclude
p801
aVincluded
p802
aVincludes
p803
aVincluding
p804
aVincompetence
p805
aVincompetent
p806
aVincomprehensible
p807
aVincrease
p808
aVincreased
p809
aVincreasingly
p810
aVincumbent
p811
aVindeed
p812
aVindependent
p813
aVindicate
p814
aVindicted
p815
aVindictment
p816
aVindividual
p817
aVindustry
p818
aVinfamous
p819
aVinfluence
p820
aVinfo
p821
aVinformation
p822
aVinherently
p823
aVinner
p824
aVinnocent
p825
aVinnuendo
p826
aVinquiry
p827
aVinside
p828
aVinsider
p829
aVinsight
p830
aVinspector
p831
aVinstead
p832
aVinsult
p833
aVintegrity
p834
aVintelligence
p835
aVintelligent
p836
aVinterest
p837
aVinterested
p838
aVinteresting
p839
aVinternational
p840
aVinternet
p841
aVinterview
p842
aVintroduced
p843
aVinvestigate
p844
aVinvestigated
p845
aVinvestigating
p846
aVinvestigation
p847
aVinvestigative
p848
aVinvestigator
p849
aVinvolved
p850
aVinvolving
p851
aViowa
p852
aViran
p853
aViraq
p854
aViraqi
p855
aVirs
p856
aVisi
p857
aVisn
p858
aVisnt
p859
aVisrael
p860
aVissue
p861
aVjail
p862
aVjay
p863
aVjeb
p864
aVjersey
p865
aVjesse
p866
aVjindal
p867
aVjob
p868
aVjoe
p869
aVjohn
p870
aVjohnny
p871
aVjoin
p872
aVjoke
p873
aVjournal
p874
aVjournalist
p875
aVjudge
p876
aVjudging
p877
aVjudgment
p878
aVjuly
p879
aVjump
p880
aVjustice
p881
aVjustify
p882
aVkainelet
p883
aVkasich
p884
aVkeep
p885
aVkeeping
p886
aVkelly
p887
aVkennedy
p888
aVkept
p889
aVkerry
p890
aVkey
p891
aVkid
p892
aVkidding
p893
aVkill
p894
aVkilled
p895
aVkilling
p896
aVkin
p897
aVkind
p898
aVkiss
p899
aVknee
p900
aVknew
p901
aVknown
p902
aVkoch
p903
aVkohl
p904
aVkondracke
p905
aVlabeled
p906
aVlack
p907
aVlady
p908
aVland
p909
aVlarge
p910
aVlast
p911
aVlater
p912
aVlatest
p913
aVlatino
p914
aVlaugh
p915
aVlaw
p916
aVlawyer
p917
aVlead
p918
aVleader
p919
aVleadership
p920
aVleading
p921
aVlearn
p922
aVleast
p923
aVleave
p924
aVled
p925
aVleft
p926
aVleftist
p927
aVleg
p928
aVlegal
p929
aVlegislation
p930
aVlegislator
p931
aVlegislature
p932
aVlegitimate
p933
aVlegitimately
p934
aVlesson
p935
aVlet
p936
aVletter
p937
aVletting
p938
aVlevel
p939
aVlevin
p940
aVliar
p941
aVlib
p942
aVliberal
p943
aVliberty
p944
aVlibs
p945
aVlibya
p946
aVlicit
p947
aVlie
p948
aVlied
p949
aVlife
p950
aVlight
p951
aVlike
p952
aVlikely
p953
aVlimit
p954
aVlindsey
p955
aVline
p956
aVlink
p957
aVlist
p958
aVlisten
p959
aVlistening
p960
aVliterally
p961
aVlittle
p962
aVlive
p963
aVliving
p964
aVlogic
p965
aVlol
p966
aVlong
p967
aVlonger
p968
aVlook
p969
aVlooked
p970
aVlooking
p971
aVlose
p972
aVloser
p973
aVlosing
p974
aVloss
p975
aVlost
p976
aVlot
p977
aVlove
p978
aVlow
p979
aVlower
p980
aVlying
p981
aVmachine
p982
aVmad
p983
aVmade
p984
aVmadeline
p985
aVmail
p986
aVmain
p987
aVmainstream
p988
aVmajor
p989
aVmajority
p990
aVmake
p991
aVmaking
p992
aVmale
p993
aVmalley
p994
aVman
p995
aVmanaged
p996
aVmanipulated
p997
aVmanner
p998
aVmany
p999
aVmarc
p1000
aVmarch
p1001
aVmarco
p1002
aVmargin
p1003
aVmarijuana
p1004
aVmark
p1005
aVmarked
p1006
aVmarquette
p1007
aVmaryland
p1008
aVmass
p1009
aVmassive
p1010
aVmaterial
p1011
aVmatter
p1012
aVmay
p1013
aVmaybe
p1014
aVmcconnell
p1015
aVmean
p1016
aVmeaning
p1017
aVmeaningful
p1018
aVmeant
p1019
aVmeanwhile
p1020
aVmeasure
p1021
aVmedicaid
p1022
aVmedical
p1023
aVmedium
p1024
aVmeet
p1025
aVmeeting
p1026
aVmegyn
p1027
aVmember
p1028
aVmemo
p1029
aVmen
p1030
aVmention
p1031
aVmess
p1032
aVmessage
p1033
aVmexican
p1034
aVmexico
p1035
aVmichigan
p1036
aVmiddle
p1037
aVmile
p1038
aVmilitary
p1039
aVmillion
p1040
aVmilwaukee
p1041
aVmind
p1042
aVminded
p1043
aVminority
p1044
aVminute
p1045
aVmishandled
p1046
aVmiss
p1047
aVmissed
p1048
aVmissile
p1049
aVmissing
p1050
aVmitt
p1051
aVmode
p1052
aVmoderate
p1053
aVmoderator
p1054
aVmoment
p1055
aVmoney
p1056
aVmonth
p1057
aVmoral
p1058
aVmoreover
p1059
aVmorning
p1060
aVmoron
p1061
aVmouth
p1062
aVmove
p1063
aVmoved
p1064
aVmovement
p1065
aVmovie
p1066
aVmoving
p1067
aVmsm
p1068
aVmuch
p1069
aVmud
p1070
aVmurder
p1071
aVmurdered
p1072
aVmuslim
p1073
aVnailed
p1074
aVname
p1075
aVnancy
p1076
aVnarcissistic
p1077
aVnarrative
p1078
aVnation
p1079
aVnational
p1080
aVnbc
p1081
aVnear
p1082
aVnearly
p1083
aVnecessary
p1084
aVneed
p1085
aVneeded
p1086
aVnegative
p1087
aVneither
p1088
aVnerve
p1089
aVnetwork
p1090
aVnever
p1091
aVnew
p1092
aVnews
p1093
aVnext
p1094
aVnice
p1095
aVnight
p1096
aVnixon
p1097
aVnobody
p1098
aVnominate
p1099
aVnominated
p1100
aVnomination
p1101
aVnominee
p1102
aVnon
p1103
aVnone
p1104
aVnonsense
p1105
aVnope
p1106
aVnormal
p1107
aVnot
p1108
aVnote
p1109
aVnoted
p1110
aVnothing
p1111
aVnotice
p1112
aVnov
p1113
aVnpr
p1114
aVnsa
p1115
aVnuclear
p1116
aVnumber
p1117
aVnumerous
p1118
aVnut
p1119
aVnyt
p1120
aVobama
p1121
aVobamacare
p1122
aVobamas
p1123
aVobjective
p1124
aVobvious
p1125
aVobviously
p1126
aVoct
p1127
aVoctober
p1128
aVoffer
p1129
aVoffered
p1130
aVoffice
p1131
aVofficial
p1132
aVoften
p1133
aVohio
p1134
aVohioan
p1135
aVoil
p1136
aVokay
p1137
aVold
p1138
aVomalley
p1139
aVone
p1140
aVonto
p1141
aVopen
p1142
aVopening
p1143
aVoperative
p1144
aVopinion
p1145
aVopponent
p1146
aVopportunity
p1147
aVopposed
p1148
aVopposition
p1149
aVoption
p1150
aVorange
p1151
aVorder
p1152
aVoriginal
p1153
aVothers
p1154
aVoutside
p1155
aVpage
p1156
aVpaid
p1157
aVpalin
p1158
aVpantsuit
p1159
aVpaper
p1160
aVparent
p1161
aVparenthood
p1162
aVpart
p1163
aVparticular
p1164
aVparticularly
p1165
aVpartisan
p1166
aVpartly
p1167
aVparty
p1168
aVpas
p1169
aVpassed
p1170
aVpassing
p1171
aVpast
p1172
aVpath
p1173
aVpathetic
p1174
aVpathological
p1175
aVpaul
p1176
aVpay
p1177
aVpaying
p1178
aVpeace
p1179
aVpelosi
p1180
aVpennsylvania
p1181
aVpeople
p1182
aVper
p1183
aVpercent
p1184
aVpercentage
p1185
aVperception
p1186
aVperfect
p1187
aVperfectly
p1188
aVperhaps
p1189
aVperil
p1190
aVperiod
p1191
aVpermanent
p1192
aVperson
p1193
aVpersonal
p1194
aVpersonally
p1195
aVpetraeus
p1196
aVphone
p1197
aVphony
p1198
aVpick
p1199
aVpicking
p1200
aVpiece
p1201
aVpig
p1202
aVplace
p1203
aVplan
p1204
aVplanet
p1205
aVplanned
p1206
aVplatitude
p1207
aVplay
p1208
aVplayed
p1209
aVplaying
p1210
aVplease
p1211
aVpledge
p1212
aVplenty
p1213
aVpocket
p1214
aVpoint
p1215
aVpointed
p1216
aVpointing
p1217
aVpol
p1218
aVpolice
p1219
aVpolicy
p1220
aVpolitical
p1221
aVpolitically
p1222
aVpolitician
p1223
aVpolitics
p1224
aVpoll
p1225
aVpolling
p1226
aVpool
p1227
aVpoor
p1228
aVpoorly
p1229
aVpopular
p1230
aVpopulation
p1231
aVportman
p1232
aVposed
p1233
aVposition
p1234
aVpositive
p1235
aVpossession
p1236
aVpossible
p1237
aVpossibly
p1238
aVpost
p1239
aVposting
p1240
aVpotential
p1241
aVpotus
p1242
aVpower
p1243
aVpractice
p1244
aVpre
p1245
aVpredict
p1246
aVpredictable
p1247
aVprefer
p1248
aVpresent
p1249
aVpresidency
p1250
aVpresident
p1251
aVpresidential
p1252
aVpress
p1253
aVpretty
p1254
aVprevious
p1255
aVpreviously
p1256
aVprimary
p1257
aVprinciple
p1258
aVprison
p1259
aVprivate
p1260
aVpro
p1261
aVprobable
p1262
aVprobably
p1263
aVproblem
p1264
aVprocess
p1265
aVproduce
p1266
aVprofessional
p1267
aVprogram
p1268
aVprogress
p1269
aVprogressive
p1270
aVpromise
p1271
aVpromote
p1272
aVproof
p1273
aVpropaganda
p1274
aVproper
p1275
aVprosecuted
p1276
aVprosecutor
p1277
aVprotect
p1278
aVproud
p1279
aVprove
p1280
aVproved
p1281
aVproven
p1282
aVprovided
p1283
aVpublic
p1284
aVpull
p1285
aVpure
p1286
aVpurpose
p1287
aVpush
p1288
aVput
p1289
aVputin
p1290
aVputting
p1291
aVqualified
p1292
aVqueen
p1293
aVquestion
p1294
aVquestioned
p1295
aVquickly
p1296
aVquinnipiac
p1297
aVquit
p1298
aVquite
p1299
aVquote
p1300
aVrace
p1301
aVracist
p1302
aVradio
p1303
aVraise
p1304
aVrally
p1305
aVran
p1306
aVrand
p1307
aVrange
p1308
aVrank
p1309
aVrate
p1310
aVrather
p1311
aVrational
p1312
aVread
p1313
aVreading
p1314
aVready
p1315
aVreal
p1316
aVreality
p1317
aVrealize
p1318
aVreally
p1319
aVreason
p1320
aVrecall
p1321
aVreceived
p1322
aVrecently
p1323
aVrecipient
p1324
aVrecognize
p1325
aVrecord
p1326
aVred
p1327
aVreduce
p1328
aVreform
p1329
aVrefuse
p1330
aVrefused
p1331
aVregard
p1332
aVregarding
p1333
aVregardless
p1334
aVregion
p1335
aVregistered
p1336
aVregulation
p1337
aVreinvigorated
p1338
aVrelated
p1339
aVrelation
p1340
aVrelationship
p1341
aVrelease
p1342
aVreleased
p1343
aVrelevant
p1344
aVremains
p1345
aVremark
p1346
aVremember
p1347
aVremind
p1348
aVremoved
p1349
aVrep
p1350
aVrepeat
p1351
aVreply
p1352
aVreport
p1353
aVreported
p1354
aVreporter
p1355
aVreporting
p1356
aVrepresentative
p1357
aVrepresents
p1358
aVrepublican
p1359
aVreputation
p1360
aVrequest
p1361
aVrequired
p1362
aVrequires
p1363
aVresearch
p1364
aVresigned
p1365
aVrespect
p1366
aVrespond
p1367
aVresponse
p1368
aVresponsibility
p1369
aVresponsible
p1370
aVrest
p1371
aVresult
p1372
aVretirement
p1373
aVretroactively
p1374
aVreturn
p1375
aVrevealed
p1376
aVreveals
p1377
aVrevenue
p1378
aVreview
p1379
aVreviewed
p1380
aVrice
p1381
aVrich
p1382
aVrid
p1383
aVride
p1384
aVridiculous
p1385
aVright
p1386
aVrightwing
p1387
aVring
p1388
aVrino
p1389
aVrinos
p1390
aVrise
p1391
aVrisk
p1392
aVrival
p1393
aVroad
p1394
aVrobert
p1395
aVrodham
p1396
aVrogue
p1397
aVroll
p1398
aVromney
p1399
aVroom
p1400
aVrotten
p1401
aVrtw
p1402
aVrubber
p1403
aVrubio
p1404
aVrule
p1405
aVrumble
p1406
aVrumor
p1407
aVrun
p1408
aVrunner
p1409
aVrunning
p1410
aVrussia
p1411
aVrussian
p1412
aVsad
p1413
aVsaddam
p1414
aVsadly
p1415
aVsaid
p1416
aVsample
p1417
aVsanctuary
p1418
aVsander
p1419
aVsandy
p1420
aVsantorum
p1421
aVsarah
p1422
aVsave
p1423
aVsaving
p1424
aVsaw
p1425
aVsay
p1426
aVsaying
p1427
aVscandal
p1428
aVscared
p1429
aVscary
p1430
aVscheduled
p1431
aVschool
p1432
aVscience
p1433
aVscott
p1434
aVscrewed
p1435
aVsearch
p1436
aVsec
p1437
aVsecond
p1438
aVsecret
p1439
aVsecretary
p1440
aVsector
p1441
aVsecure
p1442
aVsecurity
p1443
aVsee
p1444
aVseeing
p1445
aVseeking
p1446
aVseems
p1447
aVseen
p1448
aVseized
p1449
aVself
p1450
aVsell
p1451
aVselling
p1452
aVsen
p1453
aVsenate
p1454
aVsenator
p1455
aVsend
p1456
aVsending
p1457
aVsense
p1458
aVsensitive
p1459
aVsent
p1460
aVsentence
p1461
aVseparate
p1462
aVsept
p1463
aVserial
p1464
aVserious
p1465
aVseriously
p1466
aVseriousness
p1467
aVserver
p1468
aVservice
p1469
aVserving
p1470
aVset
p1471
aVsettled
p1472
aVseveral
p1473
aVsexist
p1474
aVshady
p1475
aVshake
p1476
aVshall
p1477
aVshame
p1478
aVshare
p1479
aVshill
p1480
aVshirt
p1481
aVshlikas
p1482
aVshocked
p1483
aVshort
p1484
aVshot
p1485
aVshouldn
p1486
aVshow
p1487
aVshowed
p1488
aVshowing
p1489
aVshown
p1490
aVsick
p1491
aVside
p1492
aVsign
p1493
aVsigned
p1494
aVsignificant
p1495
aVsilly
p1496
aVsimilar
p1497
aVsimple
p1498
aVsimply
p1499
aVsimultaneously
p1500
aVsince
p1501
aVsingle
p1502
aVsite
p1503
aVsitting
p1504
aVsituation
p1505
aVsix
p1506
aVslam
p1507
aVslick
p1508
aVsmall
p1509
aVsmart
p1510
aVsmear
p1511
aVsmell
p1512
aVsnowden
p1513
aVsnyder
p1514
aVsocialist
p1515
aVsociety
p1516
aVsoft
p1517
aVsold
p1518
aVsomebody
p1519
aVsomehow
p1520
aVsomeone
p1521
aVsomewhat
p1522
aVsoon
p1523
aVsooner
p1524
aVsoros
p1525
aVsorry
p1526
aVsort
p1527
aVsought
p1528
aVsound
p1529
aVsource
p1530
aVsouth
p1531
aVsovereignty
p1532
aVspeak
p1533
aVspeaker
p1534
aVspeaking
p1535
aVspeaks
p1536
aVspecial
p1537
aVspecialize
p1538
aVspeculation
p1539
aVspeech
p1540
aVspend
p1541
aVspending
p1542
aVspent
p1543
aVspin
p1544
aVspinning
p1545
aVspot
p1546
aVspotlight
p1547
aVspying
p1548
aVstaff
p1549
aVstage
p1550
aVstaged
p1551
aVstance
p1552
aVstand
p1553
aVstandard
p1554
aVstanding
p1555
aVstart
p1556
aVstarted
p1557
aVstarting
p1558
aVstate
p1559
aVstated
p1560
aVstatement
p1561
aVstatesman
p1562
aVstating
p1563
aVstatus
p1564
aVstay
p1565
aVstayed
p1566
aVstealth
p1567
aVstep
p1568
aVstock
p1569
aVstole
p1570
aVstone
p1571
aVstood
p1572
aVstop
p1573
aVstopped
p1574
aVstore
p1575
aVstored
p1576
aVstory
p1577
aVstraight
p1578
aVstrategy
p1579
aVstreet
p1580
aVstrong
p1581
aVstruck
p1582
aVstudent
p1583
aVstuff
p1584
aVstupid
p1585
aVstupidity
p1586
aVstyle
p1587
aVsubject
p1588
aVsuccess
p1589
aVsuffered
p1590
aVsunday
p1591
aVsupply
p1592
aVsupport
p1593
aVsupported
p1594
aVsupporter
p1595
aVsupporting
p1596
aVsuppose
p1597
aVsupposed
p1598
aVsupreme
p1599
aVsure
p1600
aVsurely
p1601
aVsurplus
p1602
aVsurprise
p1603
aVsuspect
p1604
aVswing
p1605
aVsyndrome
p1606
aVsyria
p1607
aVsystem
p1608
aVtake
p1609
aVtaken
p1610
aVtaking
p1611
aVtalk
p1612
aVtalked
p1613
aVtalking
p1614
aVtank
p1615
aVtape
p1616
aVtax
p1617
aVtaxpayer
p1618
aVtea
p1619
aVteach
p1620
aVteam
p1621
aVtechnology
p1622
aVtell
p1623
aVtelling
p1624
aVten
p1625
aVtenure
p1626
aVterm
p1627
aVterrible
p1628
aVterrific
p1629
aVterrorism
p1630
aVterrorist
p1631
aVtest
p1632
aVtext
p1633
aVthank
p1634
aVthanks
p1635
aVtheory
p1636
aVthing
p1637
aVthink
p1638
aVthinking
p1639
aVthird
p1640
aVthoroughly
p1641
aVthough
p1642
aVthought
p1643
aVthousand
p1644
aVthreat
p1645
aVthree
p1646
aVthroughout
p1647
aVthrow
p1648
aVthrown
p1649
aVthumb
p1650
aVthursday
p1651
aVticket
p1652
aVtie
p1653
aVtier
p1654
aVtime
p1655
aVtired
p1656
aVtoday
p1657
aVtogether
p1658
aVtold
p1659
aVtom
p1660
aVtomorrow
p1661
aVtook
p1662
aVtool
p1663
aVtop
p1664
aVtopic
p1665
aVtorture
p1666
aVtotal
p1667
aVtotally
p1668
aVtouch
p1669
aVtough
p1670
aVtoward
p1671
aVtown
p1672
aVtrack
p1673
aVtrade
p1674
aVtraitor
p1675
aVtransmitted
p1676
aVtransparency
p1677
aVtrash
p1678
aVtreason
p1679
aVtreat
p1680
aVtreated
p1681
aVtrey
p1682
aVtried
p1683
aVtrillion
p1684
aVtroop
p1685
aVtrouble
p1686
aVtrue
p1687
aVtruly
p1688
aVtruman
p1689
aVtrumped
p1690
aVtrumpster
p1691
aVtrust
p1692
aVtrusted
p1693
aVtrustworthiness
p1694
aVtrustworthy
p1695
aVtruth
p1696
aVtry
p1697
aVtrying
p1698
aVtuesday
p1699
aVtuition
p1700
aVturn
p1701
aVturned
p1702
aVturning
p1703
aVtwitter
p1704
aVtwo
p1705
aVtype
p1706
aVtypical
p1707
aVtyrant
p1708
aVugly
p1709
aVunauthorized
p1710
aVunbelievable
p1711
aVunclassified
p1712
aVunderestimated
p1713
aVundermine
p1714
aVunderstand
p1715
aVunderstanding
p1716
aVunderstands
p1717
aVunemployment
p1718
aVunethical
p1719
aVunfortunately
p1720
aVunifying
p1721
aVunion
p1722
aVunited
p1723
aVuniversity
p1724
aVunless
p1725
aVunlike
p1726
aVunsecured
p1727
aVuntrustworthy
p1728
aVupper
p1729
aVuranium
p1730
aVuse
p1731
aVusing
p1732
aVusual
p1733
aVusually
p1734
aVvalue
p1735
aVvan
p1736
aVvast
p1737
aVventura
p1738
aVveteran
p1739
aVvia
p1740
aVviable
p1741
aVvice
p1742
aVvictim
p1743
aVvideo
p1744
aVview
p1745
aVviewed
p1746
aVviewer
p1747
aVvillage
p1748
aVviolated
p1749
aVviolation
p1750
aVviolence
p1751
aVvirginia
p1752
aVvirtually
p1753
aVvoice
p1754
aVvote
p1755
aVvoted
p1756
aVvoter
p1757
aVvoting
p1758
aVwage
p1759
aVwait
p1760
aVwaiting
p1761
aVwake
p1762
aVwalker
p1763
aVwall
p1764
aVwanted
p1765
aVwapo
p1766
aVwar
p1767
aVwarfare
p1768
aVwarren
p1769
aVwashington
p1770
aVwashingtonpost
p1771
aVwasn
p1772
aVwaste
p1773
aVwasted
p1774
aVwatch
p1775
aVwatched
p1776
aVwatching
p1777
aVwater
p1778
aVwatergate
p1779
aVway
p1780
aVwealth
p1781
aVweapon
p1782
aVweb
p1783
aVweek
p1784
aVwelfare
p1785
aVwell
p1786
aVwent
p1787
aVweren
p1788
aVwhether
p1789
aVwhite
p1790
aVwhitehouse
p1791
aVwhitewater
p1792
aVwhoever
p1793
aVwhose
p1794
aVwife
p1795
aVwilling
p1796
aVwin
p1797
aVwing
p1798
aVwinger
p1799
aVwinner
p1800
aVwinning
p1801
aVwisconsin
p1802
aVwish
p1803
aVwitch
p1804
aVwithin
p1805
aVwithout
p1806
aVwoman
p1807
aVwon
p1808
aVwonder
p1809
aVword
p1810
aVwork
p1811
aVworked
p1812
aVworker
p1813
aVworking
p1814
aVworld
p1815
aVworn
p1816
aVworried
p1817
aVworry
p1818
aVworse
p1819
aVworst
p1820
aVworth
p1821
aVworthy
p1822
aVwould
p1823
aVwouldn
p1824
aVwow
p1825
aVwriter
p1826
aVwriting
p1827
aVwrong
p1828
aVwrongdoing
p1829
aVwrote
p1830
aVwww
p1831
aVyawn
p1832
aVyear
p1833
aVyork
p1834
aVyoung
p1835
aVzero
p1836
a.